Certificate:
    Data:
        Version: 3 (0x2)
        Serial Number:
            bc:04:21:4f:fc:23:aa:c1
    Signature Algorithm: sha256WithRSAEncryption
        Issuer: C=BE, ST=LIEGE, O=GodSwila Corp., OU=CS Dept, CN=GodSwila TrustMe Root CA
        Validity
            Not Before: Feb 24 21:52:01 2021 GMT
            Not After : Feb 21 21:52:01 2036 GMT
        Subject: C=BE, ST=LIEGE, O=GodSwila Corp., OU=CS Dept, CN=GodSwila TrustMe Root CA
        Subject Public Key Info:
            Public Key Algorithm: rsaEncryption
                Public-Key: (4096 bit)
                Modulus:
                    00:cc:bc:1a:e0:81:26:16:1f:8a:7a:f4:01:9c:4a:
                    8b:bf:f0:07:19:e9:1b:3d:ec:e0:d2:e4:5b:3c:82:
                    c8:2f:8f:57:91:fc:1e:3c:51:db:13:b6:2c:16:49:
                    b1:52:7f:92:4e:09:0c:43:36:d6:17:65:9b:80:07:
                    72:38:d1:02:86:e0:96:d9:08:e4:99:1a:68:af:b6:
                    bf:54:c0:42:e9:b1:ec:b2:02:00:2c:f7:68:c3:8f:
                    61:83:10:12:bd:ee:0d:f5:3d:a6:64:e3:b3:13:a3:
                    06:96:11:3f:97:b7:6e:91:4d:0a:af:e6:50:27:08:
                    3a:40:f4:b3:46:62:85:9a:dc:18:1f:3e:b2:00:8d:
                    10:0c:de:1a:18:4b:34:76:f5:d7:8d:82:59:bc:6f:
                    d1:3e:a7:aa:e4:06:cf:4d:17:c2:52:2d:4d:a2:e7:
                    08:bb:4e:a2:8f:7e:54:aa:2a:d8:09:75:b0:0b:27:
                    26:b1:db:1c:8e:36:fd:40:f5:13:8d:77:94:a0:61:
                    d3:72:6d:ab:aa:81:b4:20:9c:79:a6:c1:41:0c:c0:
                    8a:6e:e1:b6:56:7f:ff:7f:d6:0f:62:c1:32:90:d1:
                    7c:a5:5d:e7:90:27:a2:20:9b:b7:bc:97:7c:f3:8f:
                    a1:29:a1:d9:20:15:72:91:c2:50:65:7b:f2:d9:6b:
                    6e:d8:cf:22:20:7b:18:9b:79:06:e5:cd:38:8b:fa:
                    cd:ae:91:90:84:e8:be:a6:80:72:4f:67:49:2a:92:
                    5f:17:5e:bf:d2:a7:24:f2:5c:1a:40:7d:bf:4c:26:
                    12:bf:a1:98:3f:33:3a:40:46:b7:c1:e5:f4:f0:78:
                    fa:a9:45:24:ee:33:fa:b7:16:a1:3f:79:37:00:41:
                    38:f2:bb:d4:2e:df:e0:e1:82:ef:dd:77:d7:fc:43:
                    d4:95:ef:7d:ca:59:09:2c:06:de:a2:7a:3a:35:31:
                    71:95:2c:38:4b:5e:0c:0b:b4:10:f7:ef:2f:0d:b9:
                    4b:e8:9e:af:7c:44:ae:76:54:ec:05:dd:8a:26:2d:
                    bc:7b:b0:52:1e:e7:ca:e6:68:4c:fd:8d:3b:37:88:
                    0a:b6:12:d5:24:02:0e:ff:15:48:fc:ca:f4:f9:75:
                    2b:ac:8b:11:2b:11:b4:b2:bf:e3:6a:ee:a5:11:b0:
                    fb:85:b3:bf:be:41:fa:74:69:7b:fd:36:b4:b7:7a:
                    d3:e3:fe:fa:41:61:61:9c:51:44:ee:3a:0a:fc:e4:
                    9c:d1:1d:15:7e:11:81:79:98:48:43:ea:7e:c0:d7:
                    48:00:a7:16:be:dc:d1:f4:37:2d:2d:3e:19:5a:b4:
                    2d:1a:1e:ff:6e:50:ae:7a:2c:45:dc:5c:42:dc:39:
                    03:e5:51
                Exponent: 65537 (0x10001)
        X509v3 extensions:
            X509v3 Subject Key Identifier: 
                56:63:28:A3:F1:E2:4F:52:03:87:52:0C:65:32:1B:1E:F4:A8:D4:F7
            X509v3 Authority Key Identifier: 
                keyid:56:63:28:A3:F1:E2:4F:52:03:87:52:0C:65:32:1B:1E:F4:A8:D4:F7

            X509v3 Basic Constraints: 
                CA:TRUE
    Signature Algorithm: sha256WithRSAEncryption
         20:63:aa:ea:66:e8:fe:ba:c6:eb:fa:f3:a3:fd:d8:f4:6f:bf:
         0e:86:fe:61:a7:54:92:85:92:fa:b1:8d:7c:60:d7:3c:14:51:
         db:10:1e:d3:df:3f:1c:36:d5:78:55:4a:f7:bc:a8:6c:3b:82:
         f1:b9:79:74:ef:24:59:5b:21:ce:6c:70:e7:f1:be:1d:6d:56:
         f1:dc:a9:88:3a:e9:9f:25:5e:fc:1c:89:c6:e2:8f:0f:11:e0:
         81:03:8b:05:af:a5:cd:7c:a0:2f:3a:d7:b3:67:23:20:97:94:
         4a:e0:8c:08:ae:ea:44:80:32:43:12:5e:c2:94:a2:73:53:11:
         45:79:a5:dc:41:53:08:ca:a5:7a:ec:c1:ac:23:1b:9e:e7:9b:
         75:cd:11:94:37:fa:d5:13:c6:62:56:24:5b:1d:34:fd:c5:42:
         ae:18:d6:06:d2:f2:93:ef:90:f3:dd:4d:71:30:e7:6b:9b:ac:
         36:bb:70:86:54:f0:90:86:4d:9a:22:e1:6b:08:d8:d0:28:26:
         04:be:73:c1:31:81:6a:a1:7d:7e:64:95:38:ca:da:c4:ff:90:
         e2:8b:a5:56:f6:b0:80:f3:e5:99:3d:72:9e:b0:6d:44:44:23:
         38:87:eb:f6:eb:4f:db:d5:2e:e2:93:9f:3a:35:19:cb:9f:ca:
         be:4a:68:6f:2b:5e:96:f5:1b:99:64:98:db:cc:78:bd:6a:db:
         c4:48:3e:f3:9d:51:b2:d0:ba:2f:16:84:ec:a1:d9:fd:6a:48:
         2e:2a:17:3b:de:6b:6f:f5:02:8f:99:de:86:75:ed:2e:ec:42:
         74:e3:28:38:a8:31:01:1d:25:2f:19:19:64:51:c9:35:c7:2f:
         b3:38:1e:5c:c7:1c:42:10:4f:60:00:ee:19:0f:7c:67:36:25:
         1d:96:40:bc:bf:15:f0:27:2b:a0:78:16:48:b0:0a:6f:b0:4e:
         50:67:24:3d:b5:b8:24:b2:05:ad:64:6d:c0:8f:fc:3c:9d:cc:
         79:82:4e:ed:ee:dc:5a:72:b8:8c:2b:74:12:7c:9c:36:83:ba:
         2e:20:26:ab:9f:ef:03:11:85:a1:44:fe:4e:b6:bc:54:ff:b9:
         bb:35:e0:ef:36:46:52:1f:aa:a9:c4:e9:62:9e:9f:c2:f4:b2:
         64:78:4a:c3:6c:cd:4e:2a:1c:e2:e1:fb:f7:01:25:74:20:71:
         c8:9f:2f:e6:24:69:31:d9:01:72:0e:d8:49:f1:be:a9:36:c2:
         78:87:03:1c:f5:f3:56:8a:3a:29:db:29:7d:8f:bc:64:0b:7f:
         61:cc:21:9c:69:43:4c:87:97:44:fa:74:8e:19:30:ab:af:cc:
         bc:6e:bc:72:a6:da:27:9c
-----BEGIN CERTIFICATE-----
MIIFqTCCA5GgAwIBAgIJALwEIU/8I6rBMA0GCSqGSIb3DQEBCwUAMGsxCzAJBgNV
BAYTAkJFMQ4wDAYDVQQIDAVMSUVHRTEXMBUGA1UECgwOR29kU3dpbGEgQ29ycC4x
EDAOBgNVBAsMB0NTIERlcHQxITAfBgNVBAMMGEdvZFN3aWxhIFRydXN0TWUgUm9v
dCBDQTAeFw0yMTAyMjQyMTUyMDFaFw0zNjAyMjEyMTUyMDFaMGsxCzAJBgNVBAYT
AkJFMQ4wDAYDVQQIDAVMSUVHRTEXMBUGA1UECgwOR29kU3dpbGEgQ29ycC4xEDAO
BgNVBAsMB0NTIERlcHQxITAfBgNVBAMMGEdvZFN3aWxhIFRydXN0TWUgUm9vdCBD
QTCCAiIwDQYJKoZIhvcNAQEBBQADggIPADCCAgoCggIBAMy8GuCBJhYfinr0AZxK
i7/wBxnpGz3s4NLkWzyCyC+PV5H8HjxR2xO2LBZJsVJ/kk4JDEM21hdlm4AHcjjR
AobgltkI5JkaaK+2v1TAQumx7LICACz3aMOPYYMQEr3uDfU9pmTjsxOjBpYRP5e3
bpFNCq/mUCcIOkD0s0ZihZrcGB8+sgCNEAzeGhhLNHb1142CWbxv0T6nquQGz00X
wlItTaLnCLtOoo9+VKoq2Al1sAsnJrHbHI42/UD1E413lKBh03Jtq6qBtCCceabB
QQzAim7htlZ//3/WD2LBMpDRfKVd55AnoiCbt7yXfPOPoSmh2SAVcpHCUGV78tlr
btjPIiB7GJt5BuXNOIv6za6RkITovqaAck9nSSqSXxdev9KnJPJcGkB9v0wmEr+h
mD8zOkBGt8Hl9PB4+qlFJO4z+rcWoT95NwBBOPK71C7f4OGC79131/xD1JXvfcpZ
CSwG3qJ6OjUxcZUsOEteDAu0EPfvLw25S+ier3xErnZU7AXdiiYtvHuwUh7nyuZo
TP2NOzeICrYS1SQCDv8VSPzK9Pl1K6yLESsRtLK/42rupRGw+4Wzv75B+nRpe/02
tLd60+P++kFhYZxRRO46CvzknNEdFX4RgXmYSEPqfsDXSACnFr7c0fQ3LS0+GVq0
LRoe/25QrnosRdxcQtw5A+VRAgMBAAGjUDBOMB0GA1UdDgQWBBRWYyij8eJPUgOH
UgxlMhse9KjU9zAfBgNVHSMEGDAWgBRWYyij8eJPUgOHUgxlMhse9KjU9zAMBgNV
HRMEBTADAQH/MA0GCSqGSIb3DQEBCwUAA4ICAQAgY6rqZuj+usbr+vOj/dj0b78O
hv5hp1SShZL6sY18YNc8FFHbEB7T3z8cNtV4VUr3vKhsO4LxuXl07yRZWyHObHDn
8b4dbVbx3KmIOumfJV78HInG4o8PEeCBA4sFr6XNfKAvOtezZyMgl5RK4IwIrupE
gDJDEl7ClKJzUxFFeaXcQVMIyqV67MGsIxue55t1zRGUN/rVE8ZiViRbHTT9xUKu
GNYG0vKT75Dz3U1xMOdrm6w2u3CGVPCQhk2aIuFrCNjQKCYEvnPBMYFqoX1+ZJU4
ytrE/5Dii6VW9rCA8+WZPXKesG1ERCM4h+v260/b1S7ik586NRnLn8q+SmhvK16W
9RuZZJjbzHi9atvESD7znVGy0LovFoTsodn9akguKhc73mtv9QKPmd6Gde0u7EJ0
4yg4qDEBHSUvGRlkUck1xy+zOB5cxxxCEE9gAO4ZD3xnNiUdlkC8vxXwJyugeBZI
sApvsE5QZyQ9tbgksgWtZG3Aj/w8ncx5gk7t7txacriMK3QSfJw2g7ouICarn+8D
EYWhRP5OtrxU/7m7NeDvNkZSH6qpxOlinp/C9LJkeErDbM1OKhzi4fv3ASV0IHHI
ny/mJGkx2QFyDthJ8b6pNsJ4hwMc9fNWijop2yl9j7xkC39hzCGcaUNMh5dE+nSO
GTCrr8y8brxyptonnA==
-----END CERTIFICATE-----
